target datalayout = "e-m:e-p270:32:32-p271:32:32-p272:64:64-i64:64-i128:128-f80:128-n8:16:32:64-S128"
target triple = "x86_64-pc-linux-gnu"

; Function Attrs: mustprogress uwtable
define internal noundef i32 @_ZL16rsa_decrypt_wrapPvPKhmPhPmmPFiS_S2_mES_(ptr noundef %0, ptr noundef %1, i64 noundef %2, ptr noundef %3, ptr noundef %4, i64 noundef %5, ptr noundef %6, ptr noundef %7) #0 {
  %9 = alloca i32, align 4
  %10 = alloca ptr, align 8
  %11 = alloca ptr, align 8
  %12 = alloca i64, align 8
  %13 = alloca ptr, align 8
  %14 = alloca ptr, align 8
  %15 = alloca i64, align 8
  %16 = alloca ptr, align 8
  %17 = alloca ptr, align 8
  %18 = alloca ptr, align 8
  %19 = alloca i32, align 4
  store ptr %0, ptr %10, align 8, !tbaa !3
  store ptr %1, ptr %11, align 8, !tbaa !13
  store i64 %2, ptr %12, align 8, !tbaa !15
  store ptr %3, ptr %13, align 8, !tbaa !13
  store ptr %4, ptr %14, align 8, !tbaa !19
  store i64 %5, ptr %15, align 8, !tbaa !15
  store ptr %6, ptr %16, align 8, !tbaa !3
  store ptr %7, ptr %17, align 8, !tbaa !3
  call void @llvm.lifetime.start.p0(i64 8, ptr %18) #6
  %20 = load ptr, ptr %10, align 8, !tbaa !3
  store ptr %20, ptr %18, align 8, !tbaa !7
  %21 = load i64, ptr %12, align 8, !tbaa !15
  %22 = load ptr, ptr %18, align 8, !tbaa !7
  %23 = call i64 @mbedtls_rsa_get_len(ptr noundef %22)
  %24 = icmp ne i64 %21, %23
  br i1 %24, label %25, label %26

25:                                               ; preds = %8
  store i32 -16512, ptr %9, align 4
  store i32 1, ptr %19, align 4
  br label %35

26:                                               ; preds = %8
  %27 = load ptr, ptr %18, align 8, !tbaa !7
  %28 = load ptr, ptr %16, align 8, !tbaa !3
  %29 = load ptr, ptr %17, align 8, !tbaa !3
  %30 = load ptr, ptr %14, align 8, !tbaa !19
  %31 = load ptr, ptr %11, align 8, !tbaa !13
  %32 = load ptr, ptr %13, align 8, !tbaa !13
  %33 = load i64, ptr %15, align 8, !tbaa !15
  %34 = call i32 @mbedtls_rsa_pkcs1_decrypt(ptr noundef %27, ptr noundef %28, ptr noundef %29, ptr noundef %30, ptr noundef %31, ptr noundef %32, i64 noundef %33)
  store i32 %34, ptr %9, align 4
  store i32 1, ptr %19, align 4
  br label %35

35:                                               ; preds = %26, %25
  call void @llvm.lifetime.end.p0(i64 8, ptr %18) #6
  %36 = load i32, ptr %9, align 4
  ret i32 %36
}