; Function Attrs: mustprogress uwtable
define internal noundef i32 @_ZL16rsa_decrypt_wrapPvPKhmPhPmmPFiS_S2_mES_(ptr noundef %0, ptr noundef %1, i64 noundef %2, ptr noundef %3, ptr noundef %4, i64 noundef %5, ptr noundef %6, ptr noundef %7) #0 {
  %9 = tail call i64 @mbedtls_rsa_get_len(ptr noundef %0)
  %.not = icmp eq i64 %2, %9
  br i1 %.not, label %10, label %12

10:                                               ; preds = %8
  %11 = tail call i32 @mbedtls_rsa_pkcs1_decrypt(ptr noundef %0, ptr noundef %6, ptr noundef %7, ptr noundef %4, ptr noundef %1, ptr noundef %3, i64 noundef %5)
  br label %12

12:                                               ; preds = %8, %10
  %.0 = phi i32 [ %11, %10 ], [ -16512, %8 ]
  ret i32 %.0
}